(lp0
(lp1
F0.0
aF0.5
aI2
aI1
aa(lp2
F0.0
aF0.60000000000000009
aI2
aI1
aa(lp3
F0.0
aF0.70000000000000007
aI2
aI1
aa(lp4
F0.0
aF0.80000000000000004
aI3
aI1
aa(lp5
F0.0
aF0.90000000000000002
aI3
aI1
aa(lp6
F0.0
aF1.0
aI3
aI1
aa(lp7
F0.10000000000000001
aF0.5
aI2
aI1
aa(lp8
F0.10000000000000001
aF0.60000000000000009
aI2
aI1
aa(lp9
F0.10000000000000001
aF0.70000000000000007
aI2
aI1
aa(lp10
F0.10000000000000001
aF0.80000000000000004
aI3
aI1
aa(lp11
F0.10000000000000001
aF0.90000000000000002
aI3
aI1
aa(lp12
F0.10000000000000001
aF1.0
aI3
aI1
aa(lp13
F0.20000000000000001
aF0.5
aI2
aI1
aa(lp14
F0.20000000000000001
aF0.60000000000000009
aI2
aI1
aa(lp15
F0.20000000000000001
aF0.70000000000000007
aI2
aI1
aa(lp16
F0.20000000000000001
aF0.80000000000000004
aI3
aI1
aa(lp17
F0.20000000000000001
aF0.90000000000000002
aI3
aI1
aa(lp18
F0.20000000000000001
aF1.0
aI3
aI1
aa(lp19
F0.30000000000000004
aF0.40000000000000002
aI2
aI1
aa(lp20
F0.30000000000000004
aF0.5
aI2
aI1
aa(lp21
F0.30000000000000004
aF0.60000000000000009
aI2
aI1
aa(lp22
F0.30000000000000004
aF0.70000000000000007
aI3
aI1
aa(lp23
F0.30000000000000004
aF0.80000000000000004
aI3
aI1
aa(lp24
F0.30000000000000004
aF0.90000000000000002
aI3
aI1
aa(lp25
F0.30000000000000004
aF1.0
aI3
aI1
aa(lp26
F0.40000000000000002
aF0.30000000000000004
aI2
aI1
aa(lp27
F0.40000000000000002
aF0.40000000000000002
aI2
aI1
aa(lp28
F0.40000000000000002
aF0.5
aI2
aI1
aa(lp29
F0.40000000000000002
aF0.60000000000000009
aI2
aI1
aa(lp30
F0.40000000000000002
aF0.70000000000000007
aI3
aI1
aa(lp31
F0.40000000000000002
aF0.80000000000000004
aI3
aI1
aa(lp32
F0.40000000000000002
aF0.90000000000000002
aI3
aI1
aa(lp33
F0.5
aF0.0
aI2
aI1
aa(lp34
F0.5
aF0.10000000000000001
aI2
aI1
aa(lp35
F0.5
aF0.20000000000000001
aI2
aI1
aa(lp36
F0.5
aF0.30000000000000004
aI2
aI1
aa(lp37
F0.5
aF0.40000000000000002
aI2
aI1
aa(lp38
F0.5
aF0.5
aI2
aI1
aa(lp39
F0.5
aF0.60000000000000009
aI3
aI1
aa(lp40
F0.5
aF0.70000000000000007
aI3
aI1
aa(lp41
F0.5
aF0.80000000000000004
aI3
aI1
aa(lp42
F0.5
aF0.90000000000000002
aI3
aI1
aa(lp43
F0.60000000000000009
aF0.0
aI2
aI1
aa(lp44
F0.60000000000000009
aF0.10000000000000001
aI2
aI1
aa(lp45
F0.60000000000000009
aF0.20000000000000001
aI2
aI1
aa(lp46
F0.60000000000000009
aF0.30000000000000004
aI2
aI1
aa(lp47
F0.60000000000000009
aF0.40000000000000002
aI2
aI1
aa(lp48
F0.60000000000000009
aF0.5
aI3
aI1
aa(lp49
F0.60000000000000009
aF0.60000000000000009
aI3
aI1
aa(lp50
F0.60000000000000009
aF0.70000000000000007
aI3
aI1
aa(lp51
F0.60000000000000009
aF0.80000000000000004
aI3
aI1
aa(lp52
F0.70000000000000007
aF0.0
aI2
aI1
aa(lp53
F0.70000000000000007
aF0.10000000000000001
aI2
aI1
aa(lp54
F0.70000000000000007
aF0.20000000000000001
aI2
aI1
aa(lp55
F0.70000000000000007
aF0.30000000000000004
aI3
aI1
aa(lp56
F0.70000000000000007
aF0.40000000000000002
aI3
aI1
aa(lp57
F0.70000000000000007
aF0.5
aI3
aI1
aa(lp58
F0.70000000000000007
aF0.60000000000000009
aI3
aI1
aa(lp59
F0.70000000000000007
aF0.70000000000000007
aI3
aI1
aa(lp60
F0.80000000000000004
aF0.0
aI3
aI1
aa(lp61
F0.80000000000000004
aF0.10000000000000001
aI3
aI1
aa(lp62
F0.80000000000000004
aF0.20000000000000001
aI3
aI1
aa(lp63
F0.80000000000000004
aF0.30000000000000004
aI3
aI1
aa(lp64
F0.80000000000000004
aF0.40000000000000002
aI3
aI1
aa(lp65
F0.80000000000000004
aF0.5
aI3
aI1
aa(lp66
F0.80000000000000004
aF0.60000000000000009
aI3
aI1
aa(lp67
F0.90000000000000002
aF0.0
aI3
aI1
aa(lp68
F0.90000000000000002
aF0.10000000000000001
aI3
aI1
aa(lp69
F0.90000000000000002
aF0.20000000000000001
aI3
aI1
aa(lp70
F0.90000000000000002
aF0.30000000000000004
aI3
aI1
aa(lp71
F0.90000000000000002
aF0.40000000000000002
aI3
aI1
aa(lp72
F0.90000000000000002
aF0.5
aI3
aI1
aa(lp73
F1.0
aF0.0
aI3
aI1
aa(lp74
F1.0
aF0.10000000000000001
aI3
aI1
aa(lp75
F1.0
aF0.20000000000000001
aI3
aI1
aa(lp76
F1.0
aF0.30000000000000004
aI3
aI1
aa.